target datalayout = "e-m:e-p270:32:32-p271:32:32-p272:64:64-i64:64-i128:128-f80:128-n8:16:32:64-S128"
target triple = "x86_64-pc-linux-gnu"

%struct.Fxch_Man_t_ = type { ptr, i32, i32, ptr, ptr, ptr, ptr, ptr, ptr, ptr, ptr, ptr, ptr, ptr, ptr, i32, ptr, ptr, ptr, ptr, ptr, ptr, ptr, i64, i64, i32, i32, i32, i32, i32 }
%struct.Vec_Int_t_ = type { i32, i32, ptr }
%struct.Hsh_VecMan_t_ = type { ptr, ptr, ptr, %struct.Vec_Int_t_, %struct.Vec_Int_t_, %struct.Vec_Int_t_ }
%struct.Hsh_VecObj_t_ = type { i32, i32, [0 x i32] }
%struct.Vec_Flt_t_ = type { i32, i32, ptr }

@.str = private unnamed_addr constant [11 x i8] c"Div %7d : \00", align 1
@.str.1 = private unnamed_addr constant [16 x i8] c"Weight %12.5f  \00", align 1
@.str.2 = private unnamed_addr constant [6 x i8] c"%d(1)\00", align 1
@.str.3 = private unnamed_addr constant [4 x i8] c" + \00", align 1
@.str.4 = private unnamed_addr constant [6 x i8] c"%d(2)\00", align 1
@.str.5 = private unnamed_addr constant [13 x i8] c" Lits =%7d  \00", align 1
@.str.6 = private unnamed_addr constant [13 x i8] c"Divs =%8d  \0A\00", align 1

; Function Attrs: inlinehint nounwind uwtable
define internal ptr @Vec_IntEntryP(ptr noundef %0, i32 noundef %1) #2 {
  %3 = alloca ptr, align 8
  %4 = alloca i32, align 4
  store ptr %0, ptr %3, align 8, !tbaa !24
  store i32 %1, ptr %4, align 4, !tbaa !10
  %5 = load ptr, ptr %3, align 8, !tbaa !24
  %6 = getelementptr inbounds nuw %struct.Vec_Int_t_, ptr %5, i32 0, i32 2
  %7 = load ptr, ptr %6, align 8, !tbaa !29
  %8 = load i32, ptr %4, align 4, !tbaa !10
  %9 = sext i32 %8 to i64
  %10 = getelementptr inbounds i32, ptr %7, i64 %9
  ret ptr %10
}

; Function Attrs: inlinehint nounwind uwtable
define internal ptr @Hsh_VecObj(ptr noundef %0, i32 noundef %1) #2 {
  %3 = alloca ptr, align 8
  %4 = alloca i32, align 4
  store ptr %0, ptr %3, align 8, !tbaa !35
  store i32 %1, ptr %4, align 4, !tbaa !10
  %5 = load i32, ptr %4, align 4, !tbaa !10
  %6 = icmp eq i32 %5, -1
  br i1 %6, label %7, label %8

7:                                                ; preds = %2
  br label %18

8:                                                ; preds = %2
  %9 = load ptr, ptr %3, align 8, !tbaa !35
  %10 = getelementptr inbounds nuw %struct.Hsh_VecMan_t_, ptr %9, i32 0, i32 1
  %11 = load ptr, ptr %10, align 8, !tbaa !47
  %12 = load ptr, ptr %3, align 8, !tbaa !35
  %13 = getelementptr inbounds nuw %struct.Hsh_VecMan_t_, ptr %12, i32 0, i32 2
  %14 = load ptr, ptr %13, align 8, !tbaa !36
  %15 = load i32, ptr %4, align 4, !tbaa !10
  %16 = call i32 @Vec_IntEntry(ptr noundef %14, i32 noundef %15)
  %17 = call ptr @Vec_IntEntryP(ptr noundef %11, i32 noundef %16)
  br label %18

18:                                               ; preds = %8, %7
  %19 = phi ptr [ null, %7 ], [ %17, %8 ]
  ret ptr %19
}

; Function Attrs: inlinehint nounwind uwtable
define internal i32 @Hsh_VecSize(ptr noundef %0) #2 {
  %2 = alloca ptr, align 8
  store ptr %0, ptr %2, align 8, !tbaa !35
  %3 = load ptr, ptr %2, align 8, !tbaa !35
  %4 = getelementptr inbounds nuw %struct.Hsh_VecMan_t_, ptr %3, i32 0, i32 2
  %5 = load ptr, ptr %4, align 8, !tbaa !36
  %6 = call i32 @Vec_IntSize(ptr noundef %5)
  ret i32 %6
}

; Function Attrs: inlinehint nounwind uwtable
define internal i32 @Abc_Lit2Var(i32 noundef %0) #2 {
  %2 = alloca i32, align 4
  store i32 %0, ptr %2, align 4, !tbaa !10
  %3 = load i32, ptr %2, align 4, !tbaa !10
  %4 = ashr i32 %3, 1
  ret i32 %4
}

; Function Attrs: inlinehint nounwind uwtable
define internal i32 @Abc_LitIsCompl(i32 noundef %0) #2 {
  %2 = alloca i32, align 4
  store i32 %0, ptr %2, align 4, !tbaa !10
  %3 = load i32, ptr %2, align 4, !tbaa !10
  %4 = and i32 %3, 1
  ret i32 %4
}

; Function Attrs: inlinehint nounwind uwtable
define internal i32 @Vec_IntEntry(ptr noundef %0, i32 noundef %1) #2 {
  %3 = alloca ptr, align 8
  %4 = alloca i32, align 4
  store ptr %0, ptr %3, align 8, !tbaa !24
  store i32 %1, ptr %4, align 4, !tbaa !10
  %5 = load ptr, ptr %3, align 8, !tbaa !24
  %6 = getelementptr inbounds nuw %struct.Vec_Int_t_, ptr %5, i32 0, i32 2
  %7 = load ptr, ptr %6, align 8, !tbaa !29
  %8 = load i32, ptr %4, align 4, !tbaa !10
  %9 = sext i32 %8 to i64
  %10 = getelementptr inbounds i32, ptr %7, i64 %9
  %11 = load i32, ptr %10, align 4, !tbaa !10
  ret i32 %11
}

; Function Attrs: inlinehint nounwind uwtable
define internal i32 @Vec_IntSize(ptr noundef %0) #2 {
  %2 = alloca ptr, align 8
  store ptr %0, ptr %2, align 8, !tbaa !24
  %3 = load ptr, ptr %2, align 8, !tbaa !24
  %4 = getelementptr inbounds nuw %struct.Vec_Int_t_, ptr %3, i32 0, i32 1
  %5 = load i32, ptr %4, align 4, !tbaa !25
  ret i32 %5
}

; Function Attrs: inlinehint nounwind uwtable
define internal float @Vec_FltEntry(ptr noundef %0, i32 noundef %1) #2 {
  %3 = alloca ptr, align 8
  %4 = alloca i32, align 4
  store ptr %0, ptr %3, align 8, !tbaa !49
  store i32 %1, ptr %4, align 4, !tbaa !10
  %5 = load ptr, ptr %3, align 8, !tbaa !49
  %6 = getelementptr inbounds nuw %struct.Vec_Flt_t_, ptr %5, i32 0, i32 2
  %7 = load ptr, ptr %6, align 8, !tbaa !60
  %8 = load i32, ptr %4, align 4, !tbaa !10
  %9 = sext i32 %8 to i64
  %10 = getelementptr inbounds float, ptr %7, i64 %9
  %11 = load float, ptr %10, align 4, !tbaa !57
  ret float %11
}

; Function Attrs: inlinehint nounwind uwtable
define internal ptr @Hsh_VecReadEntry(ptr noundef %0, i32 noundef %1) #2 {
  %3 = alloca ptr, align 8
  %4 = alloca i32, align 4
  %5 = alloca ptr, align 8
  store ptr %0, ptr %3, align 8, !tbaa !35
  store i32 %1, ptr %4, align 4, !tbaa !10
  call void @llvm.lifetime.start.p0(i64 8, ptr %5) #9
  %6 = load ptr, ptr %3, align 8, !tbaa !35
  %7 = load i32, ptr %4, align 4, !tbaa !10
  %8 = call ptr @Hsh_VecObj(ptr noundef %6, i32 noundef %7)
  store ptr %8, ptr %5, align 8, !tbaa !43
  %9 = load ptr, ptr %5, align 8, !tbaa !43
  %10 = getelementptr inbounds nuw %struct.Hsh_VecObj_t_, ptr %9, i32 0, i32 0
  %11 = load i32, ptr %10, align 4, !tbaa !45
  %12 = load ptr, ptr %3, align 8, !tbaa !35
  %13 = getelementptr inbounds nuw %struct.Hsh_VecMan_t_, ptr %12, i32 0, i32 3
  %14 = getelementptr inbounds nuw %struct.Vec_Int_t_, ptr %13, i32 0, i32 0
  store i32 %11, ptr %14, align 8, !tbaa !79
  %15 = load ptr, ptr %3, align 8, !tbaa !35
  %16 = getelementptr inbounds nuw %struct.Hsh_VecMan_t_, ptr %15, i32 0, i32 3
  %17 = getelementptr inbounds nuw %struct.Vec_Int_t_, ptr %16, i32 0, i32 1
  store i32 %11, ptr %17, align 4, !tbaa !80
  %18 = load ptr, ptr %5, align 8, !tbaa !43
  %19 = getelementptr inbounds i32, ptr %18, i64 2
  %20 = load ptr, ptr %3, align 8, !tbaa !35
  %21 = getelementptr inbounds nuw %struct.Hsh_VecMan_t_, ptr %20, i32 0, i32 3
  %22 = getelementptr inbounds nuw %struct.Vec_Int_t_, ptr %21, i32 0, i32 2
  store ptr %19, ptr %22, align 8, !tbaa !81
  %23 = load ptr, ptr %3, align 8, !tbaa !35
  %24 = getelementptr inbounds nuw %struct.Hsh_VecMan_t_, ptr %23, i32 0, i32 3
  call void @llvm.lifetime.end.p0(i64 8, ptr %5) #9
  ret ptr %24
}

; Function Attrs: nounwind uwtable
define void @Fxch_DivPrint(ptr noundef %0, i32 noundef %1) #0 {
  %3 = alloca ptr, align 8
  %4 = alloca i32, align 4
  %5 = alloca ptr, align 8
  %6 = alloca i32, align 4
  %7 = alloca i32, align 4
  store ptr %0, ptr %3, align 8, !tbaa !3
  store i32 %1, ptr %4, align 4, !tbaa !10
  call void @llvm.lifetime.start.p0(i64 8, ptr %5) #9
  %8 = load ptr, ptr %3, align 8, !tbaa !3
  %9 = getelementptr inbounds nuw %struct.Fxch_Man_t_, ptr %8, i32 0, i32 7
  %10 = load ptr, ptr %9, align 8, !tbaa !31
  %11 = load i32, ptr %4, align 4, !tbaa !10
  %12 = call ptr @Hsh_VecReadEntry(ptr noundef %10, i32 noundef %11)
  store ptr %12, ptr %5, align 8, !tbaa !24
  call void @llvm.lifetime.start.p0(i64 4, ptr %6) #9
  call void @llvm.lifetime.start.p0(i64 4, ptr %7) #9
  %13 = load i32, ptr %4, align 4, !tbaa !10
  %14 = call i32 (ptr, ...) @printf(ptr noundef @.str, i32 noundef %13)
  %15 = load ptr, ptr %3, align 8, !tbaa !3
  %16 = getelementptr inbounds nuw %struct.Fxch_Man_t_, ptr %15, i32 0, i32 8
  %17 = load ptr, ptr %16, align 8, !tbaa !32
  %18 = load i32, ptr %4, align 4, !tbaa !10
  %19 = call float @Vec_FltEntry(ptr noundef %17, i32 noundef %18)
  %20 = fpext float %19 to double
  %21 = call i32 (ptr, ...) @printf(ptr noundef @.str.1, double noundef %20)
  store i32 0, ptr %6, align 4, !tbaa !10
  br label %22

22:                                               ; preds = %42, %2
  %23 = load i32, ptr %6, align 4, !tbaa !10
  %24 = load ptr, ptr %5, align 8, !tbaa !24
  %25 = call i32 @Vec_IntSize(ptr noundef %24)
  %26 = icmp slt i32 %23, %25
  br i1 %26, label %27, label %31

27:                                               ; preds = %22
  %28 = load ptr, ptr %5, align 8, !tbaa !24
  %29 = load i32, ptr %6, align 4, !tbaa !10
  %30 = call i32 @Vec_IntEntry(ptr noundef %28, i32 noundef %29)
  store i32 %30, ptr %7, align 4, !tbaa !10
  br label %31

31:                                               ; preds = %27, %22
  %32 = phi i1 [ false, %22 ], [ true, %27 ]
  br i1 %32, label %33, label %45

33:                                               ; preds = %31
  %34 = load i32, ptr %7, align 4, !tbaa !10
  %35 = call i32 @Abc_LitIsCompl(i32 noundef %34)
  %36 = icmp ne i32 %35, 0
  br i1 %36, label %41, label %37

37:                                               ; preds = %33
  %38 = load i32, ptr %7, align 4, !tbaa !10
  %39 = call i32 @Abc_Lit2Var(i32 noundef %38)
  %40 = call i32 (ptr, ...) @printf(ptr noundef @.str.2, i32 noundef %39)
  br label %41

41:                                               ; preds = %37, %33
  br label %42

42:                                               ; preds = %41
  %43 = load i32, ptr %6, align 4, !tbaa !10
  %44 = add nsw i32 %43, 1
  store i32 %44, ptr %6, align 4, !tbaa !10
  br label %22, !llvm.loop !76

45:                                               ; preds = %31
  %46 = call i32 (ptr, ...) @printf(ptr noundef @.str.3)
  store i32 0, ptr %6, align 4, !tbaa !10
  br label %47

47:                                               ; preds = %67, %45
  %48 = load i32, ptr %6, align 4, !tbaa !10
  %49 = load ptr, ptr %5, align 8, !tbaa !24
  %50 = call i32 @Vec_IntSize(ptr noundef %49)
  %51 = icmp slt i32 %48, %50
  br i1 %51, label %52, label %56

52:                                               ; preds = %47
  %53 = load ptr, ptr %5, align 8, !tbaa !24
  %54 = load i32, ptr %6, align 4, !tbaa !10
  %55 = call i32 @Vec_IntEntry(ptr noundef %53, i32 noundef %54)
  store i32 %55, ptr %7, align 4, !tbaa !10
  br label %56

56:                                               ; preds = %52, %47
  %57 = phi i1 [ false, %47 ], [ true, %52 ]
  br i1 %57, label %58, label %70

58:                                               ; preds = %56
  %59 = load i32, ptr %7, align 4, !tbaa !10
  %60 = call i32 @Abc_LitIsCompl(i32 noundef %59)
  %61 = icmp ne i32 %60, 0
  br i1 %61, label %62, label %66

62:                                               ; preds = %58
  %63 = load i32, ptr %7, align 4, !tbaa !10
  %64 = call i32 @Abc_Lit2Var(i32 noundef %63)
  %65 = call i32 (ptr, ...) @printf(ptr noundef @.str.4, i32 noundef %64)
  br label %66

66:                                               ; preds = %62, %58
  br label %67

67:                                               ; preds = %66
  %68 = load i32, ptr %6, align 4, !tbaa !10
  %69 = add nsw i32 %68, 1
  store i32 %69, ptr %6, align 4, !tbaa !10
  br label %47, !llvm.loop !77

70:                                               ; preds = %56
  %71 = load ptr, ptr %3, align 8, !tbaa !3
  %72 = getelementptr inbounds nuw %struct.Fxch_Man_t_, ptr %71, i32 0, i32 26
  %73 = load i32, ptr %72, align 4, !tbaa !78
  %74 = call i32 (ptr, ...) @printf(ptr noundef @.str.5, i32 noundef %73)
  %75 = load ptr, ptr %3, align 8, !tbaa !3
  %76 = getelementptr inbounds nuw %struct.Fxch_Man_t_, ptr %75, i32 0, i32 7
  %77 = load ptr, ptr %76, align 8, !tbaa !31
  %78 = call i32 @Hsh_VecSize(ptr noundef %77)
  %79 = call i32 (ptr, ...) @printf(ptr noundef @.str.6, i32 noundef %78)
  call void @llvm.lifetime.end.p0(i64 4, ptr %7) #9
  call void @llvm.lifetime.end.p0(i64 4, ptr %6) #9
  call void @llvm.lifetime.end.p0(i64 8, ptr %5) #9
  ret void
}