; Function Attrs: nofree nounwind uwtable
define void @Fxch_DivPrint(ptr noundef readonly captures(none) %0, i32 noundef %1) local_unnamed_addr #6 {
  %3 = getelementptr inbounds nuw i8, ptr %0, i64 48
  %4 = load ptr, ptr %3, align 8, !tbaa !27
  %5 = icmp ne i32 %1, -1
  tail call void @llvm.assume(i1 %5)
  %6 = getelementptr inbounds nuw i8, ptr %4, i64 8
  %7 = load ptr, ptr %6, align 8, !tbaa !55
  %8 = getelementptr inbounds nuw i8, ptr %4, i64 16
  %9 = load ptr, ptr %8, align 8, !tbaa !50
  %10 = getelementptr i8, ptr %9, i64 8
  %.val.i.i = load ptr, ptr %10, align 8, !tbaa !24
  %11 = sext i32 %1 to i64
  %12 = getelementptr inbounds i32, ptr %.val.i.i, i64 %11
  %13 = load i32, ptr %12, align 4, !tbaa !25
  %14 = getelementptr i8, ptr %7, i64 8
  %.val3.i.i = load ptr, ptr %14, align 8, !tbaa !24
  %15 = sext i32 %13 to i64
  %16 = getelementptr inbounds i32, ptr %.val3.i.i, i64 %15
  %17 = load i32, ptr %16, align 4, !tbaa !56
  %18 = getelementptr inbounds nuw i8, ptr %4, i64 24
  store i32 %17, ptr %18, align 8, !tbaa !58
  %19 = getelementptr i8, ptr %4, i64 28
  store i32 %17, ptr %19, align 4, !tbaa !59
  %20 = getelementptr inbounds nuw i8, ptr %16, i64 8
  %21 = getelementptr i8, ptr %4, i64 32
  store ptr %20, ptr %21, align 8, !tbaa !60
  %22 = tail call i32 (ptr, ...) @printf(ptr noundef nonnull dereferenceable(1) @.str, i32 noundef %1)
  %23 = getelementptr inbounds nuw i8, ptr %0, i64 56
  %24 = load ptr, ptr %23, align 8, !tbaa !28
  %25 = getelementptr i8, ptr %24, i64 8
  %.val26 = load ptr, ptr %25, align 8, !tbaa !36
  %26 = getelementptr inbounds float, ptr %.val26, i64 %11
  %27 = load float, ptr %26, align 4, !tbaa !37
  %28 = fpext float %27 to double
  %29 = tail call i32 (ptr, ...) @printf(ptr noundef nonnull dereferenceable(1) @.str.1, double noundef %28)
  %.val2528 = load i32, ptr %19, align 4, !tbaa !17
  %30 = icmp sgt i32 %.val2528, 0
  br i1 %30, label %.lr.ph, label %.critedge

.lr.ph:                                           ; preds = %2, %37
  %.val2537 = phi i32 [ %.val25, %37 ], [ %.val2528, %2 ]
  %indvars.iv = phi i64 [ %indvars.iv.next, %37 ], [ 0, %2 ]
  %.val23 = load ptr, ptr %21, align 8, !tbaa !24
  %31 = getelementptr inbounds nuw i32, ptr %.val23, i64 %indvars.iv
  %32 = load i32, ptr %31, align 4, !tbaa !25
  %33 = and i32 %32, 1
  %.not22 = icmp eq i32 %33, 0
  br i1 %.not22, label %34, label %37

34:                                               ; preds = %.lr.ph
  %35 = ashr exact i32 %32, 1
  %36 = tail call i32 (ptr, ...) @printf(ptr noundef nonnull dereferenceable(1) @.str.2, i32 noundef %35)
  %.val25.pre = load i32, ptr %19, align 4, !tbaa !17
  br label %37

37:                                               ; preds = %.lr.ph, %34
  %.val25 = phi i32 [ %.val2537, %.lr.ph ], [ %.val25.pre, %34 ]
  %indvars.iv.next = add nuw nsw i64 %indvars.iv, 1
  %38 = sext i32 %.val25 to i64
  %39 = icmp slt i64 %indvars.iv.next, %38
  br i1 %39, label %.lr.ph, label %.critedge, !llvm.loop !76

.critedge:                                        ; preds = %37, %2
  %40 = tail call i32 (ptr, ...) @printf(ptr noundef nonnull dereferenceable(1) @.str.3)
  %.val2430 = load i32, ptr %19, align 4, !tbaa !17
  %41 = icmp sgt i32 %.val2430, 0
  br i1 %41, label %.lr.ph32, label %.critedge2

.lr.ph32:                                         ; preds = %.critedge, %48
  %.val2439 = phi i32 [ %.val24, %48 ], [ %.val2430, %.critedge ]
  %indvars.iv34 = phi i64 [ %indvars.iv.next35, %48 ], [ 0, %.critedge ]
  %.val = load ptr, ptr %21, align 8, !tbaa !24
  %42 = getelementptr inbounds nuw i32, ptr %.val, i64 %indvars.iv34
  %43 = load i32, ptr %42, align 4, !tbaa !25
  %44 = and i32 %43, 1
  %.not = icmp eq i32 %44, 0
  br i1 %.not, label %48, label %45

45:                                               ; preds = %.lr.ph32
  %46 = ashr i32 %43, 1
  %47 = tail call i32 (ptr, ...) @printf(ptr noundef nonnull dereferenceable(1) @.str.4, i32 noundef %46)
  %.val24.pre = load i32, ptr %19, align 4, !tbaa !17
  br label %48

48:                                               ; preds = %.lr.ph32, %45
  %.val24 = phi i32 [ %.val2439, %.lr.ph32 ], [ %.val24.pre, %45 ]
  %indvars.iv.next35 = add nuw nsw i64 %indvars.iv34, 1
  %49 = sext i32 %.val24 to i64
  %50 = icmp slt i64 %indvars.iv.next35, %49
  br i1 %50, label %.lr.ph32, label %.critedge2, !llvm.loop !77

.critedge2:                                       ; preds = %48, %.critedge
  %51 = getelementptr inbounds nuw i8, ptr %0, i64 196
  %52 = load i32, ptr %51, align 4, !tbaa !78
  %53 = tail call i32 (ptr, ...) @printf(ptr noundef nonnull dereferenceable(1) @.str.5, i32 noundef %52)
  %54 = load ptr, ptr %3, align 8, !tbaa !27
  %55 = getelementptr i8, ptr %54, i64 16
  %.val27 = load ptr, ptr %55, align 8, !tbaa !50
  %56 = getelementptr i8, ptr %.val27, i64 4
  %.val27.val = load i32, ptr %56, align 4, !tbaa !17
  %57 = tail call i32 (ptr, ...) @printf(ptr noundef nonnull dereferenceable(1) @.str.6, i32 noundef %.val27.val)
  ret void
}